target datalayout = "e-m:e-p270:32:32-p271:32:32-p272:64:64-i64:64-i128:128-f80:128-n8:16:32:64-S128"
target triple = "x86_64-pc-linux-gnu"

%struct.redisCommand = type { ptr, ptr, ptr, ptr, i32, ptr, ptr, i32, ptr, i32, ptr, i32, ptr, i32, i64, i64, ptr, i32, ptr, i32, ptr, ptr, i64, i64, i64, i64, i32, ptr, ptr, %struct.keySpec, ptr, ptr, ptr }
%struct.keySpec = type { ptr, i64, i32, %union.anon.0, i32, %union.anon.3 }
%union.anon.0 = type { %struct.anon.2 }
%struct.anon.2 = type { ptr, i32 }
%union.anon.3 = type { %struct.anon.4 }
%struct.anon.4 = type { i32, i32, i32 }
%struct.sdshdr8 = type { i8, i8, i8, [0 x i8] }
%struct.sdshdr16 = type <{ i16, i16, i8, [0 x i8] }>
%struct.sdshdr32 = type <{ i32, i32, i8, [0 x i8] }>
%struct.sdshdr64 = type <{ i64, i64, i8, [0 x i8] }>
%struct.client = type { i64, i64, ptr, i8, i8, i8, i8, i32, ptr, ptr, ptr, ptr, ptr, i64, i64, i32, ptr, i32, i32, ptr, i64, ptr, ptr, ptr, ptr, ptr, i32, i32, i64, ptr, i64, ptr, i64, i64, i64, i32, ptr, i64, i64, i32, i32, i32, i32, i64, i64, ptr, i64, i64, i64, i64, i64, i64, i64, i64, [41 x i8], i32, ptr, i32, i32, i64, %struct.multiState, %struct.blockingState, i64, ptr, ptr, ptr, ptr, ptr, ptr, ptr, ptr, ptr, ptr, ptr, ptr, ptr, ptr, i64, ptr, i64, i32, ptr, ptr, ptr, i64, %struct.listNode, i64, i64, i32, i64, ptr }
%struct.multiState = type { ptr, i32, i32, i32, i64, i32 }
%struct.blockingState = type { i32, i64, i32, ptr, i32, i32, i64, ptr, ptr, i64 }
%struct.listNode = type { ptr, ptr, ptr }
%struct.redisObject = type { i32, i32, ptr }

; Function Attrs: inlinehint nounwind uwtable
define internal i64 @sdslen(ptr noundef %0) #7 {
  %2 = alloca i64, align 8
  %3 = alloca ptr, align 8
  %4 = alloca i8, align 1
  %5 = alloca i32, align 4
  store ptr %0, ptr %3, align 8, !tbaa !40
  call void @llvm.lifetime.start.p0(i64 1, ptr %4) #10
  %6 = load ptr, ptr %3, align 8, !tbaa !40
  %7 = getelementptr inbounds i8, ptr %6, i64 -1
  %8 = load i8, ptr %7, align 1, !tbaa !100
  store i8 %8, ptr %4, align 1, !tbaa !100
  %9 = load i8, ptr %4, align 1, !tbaa !100
  %10 = zext i8 %9 to i32
  %11 = and i32 %10, 7
  switch i32 %11, label %40 [
    i32 0, label %12
    i32 1, label %17
    i32 2, label %23
    i32 3, label %29
    i32 4, label %35
  ]

12:                                               ; preds = %1
  %13 = load i8, ptr %4, align 1, !tbaa !100
  %14 = zext i8 %13 to i32
  %15 = ashr i32 %14, 3
  %16 = sext i32 %15 to i64
  store i64 %16, ptr %2, align 8
  store i32 1, ptr %5, align 4
  br label %41

17:                                               ; preds = %1
  %18 = load ptr, ptr %3, align 8, !tbaa !40
  %19 = getelementptr inbounds i8, ptr %18, i64 -3
  %20 = getelementptr inbounds nuw %struct.sdshdr8, ptr %19, i32 0, i32 0
  %21 = load i8, ptr %20, align 1, !tbaa !100
  %22 = zext i8 %21 to i64
  store i64 %22, ptr %2, align 8
  store i32 1, ptr %5, align 4
  br label %41

23:                                               ; preds = %1
  %24 = load ptr, ptr %3, align 8, !tbaa !40
  %25 = getelementptr inbounds i8, ptr %24, i64 -5
  %26 = getelementptr inbounds nuw %struct.sdshdr16, ptr %25, i32 0, i32 0
  %27 = load i16, ptr %26, align 1, !tbaa !101
  %28 = zext i16 %27 to i64
  store i64 %28, ptr %2, align 8
  store i32 1, ptr %5, align 4
  br label %41

29:                                               ; preds = %1
  %30 = load ptr, ptr %3, align 8, !tbaa !40
  %31 = getelementptr inbounds i8, ptr %30, i64 -9
  %32 = getelementptr inbounds nuw %struct.sdshdr32, ptr %31, i32 0, i32 0
  %33 = load i32, ptr %32, align 1, !tbaa !48
  %34 = zext i32 %33 to i64
  store i64 %34, ptr %2, align 8
  store i32 1, ptr %5, align 4
  br label %41

35:                                               ; preds = %1
  %36 = load ptr, ptr %3, align 8, !tbaa !40
  %37 = getelementptr inbounds i8, ptr %36, i64 -17
  %38 = getelementptr inbounds nuw %struct.sdshdr64, ptr %37, i32 0, i32 0
  %39 = load i64, ptr %38, align 1, !tbaa !44
  store i64 %39, ptr %2, align 8
  store i32 1, ptr %5, align 4
  br label %41

40:                                               ; preds = %1
  store i64 0, ptr %2, align 8
  store i32 1, ptr %5, align 4
  br label %41

41:                                               ; preds = %40, %35, %29, %23, %17, %12
  call void @llvm.lifetime.end.p0(i64 1, ptr %4) #10
  %42 = load i64, ptr %2, align 8
  ret i64 %42
}

; Function Attrs: nounwind uwtable
define dso_local void @latencySpecificCommandsFillCDF(ptr noundef %0) #0 {
  %2 = alloca ptr, align 8
  %3 = alloca ptr, align 8
  %4 = alloca i32, align 4
  %5 = alloca i32, align 4
  %6 = alloca i32, align 4
  %7 = alloca ptr, align 8
  %8 = alloca ptr, align 8
  %9 = alloca ptr, align 8
  %10 = alloca ptr, align 8
  store ptr %0, ptr %2, align 8, !tbaa !77
  call void @llvm.lifetime.start.p0(i64 8, ptr %3) #10
  %11 = load ptr, ptr %2, align 8, !tbaa !77
  %12 = call ptr @addReplyDeferredLen(ptr noundef %11)
  store ptr %12, ptr %3, align 8, !tbaa !10
  call void @llvm.lifetime.start.p0(i64 4, ptr %4) #10
  store i32 0, ptr %4, align 4, !tbaa !48
  call void @llvm.lifetime.start.p0(i64 4, ptr %5) #10
  store i32 2, ptr %5, align 4, !tbaa !48
  br label %13

13:                                               ; preds = %97, %1
  %14 = load i32, ptr %5, align 4, !tbaa !48
  %15 = load ptr, ptr %2, align 8, !tbaa !77
  %16 = getelementptr inbounds nuw %struct.client, ptr %15, i32 0, i32 15
  %17 = load i32, ptr %16, align 8, !tbaa !103
  %18 = icmp slt i32 %14, %17
  br i1 %18, label %20, label %19

19:                                               ; preds = %13
  store i32 2, ptr %6, align 4
  call void @llvm.lifetime.end.p0(i64 4, ptr %5) #10
  br label %100

20:                                               ; preds = %13
  call void @llvm.lifetime.start.p0(i64 8, ptr %7) #10
  %21 = load ptr, ptr %2, align 8, !tbaa !77
  %22 = getelementptr inbounds nuw %struct.client, ptr %21, i32 0, i32 16
  %23 = load ptr, ptr %22, align 8, !tbaa !112
  %24 = load i32, ptr %5, align 4, !tbaa !48
  %25 = sext i32 %24 to i64
  %26 = getelementptr inbounds ptr, ptr %23, i64 %25
  %27 = load ptr, ptr %26, align 8, !tbaa !113
  %28 = getelementptr inbounds nuw %struct.redisObject, ptr %27, i32 0, i32 2
  %29 = load ptr, ptr %28, align 8, !tbaa !114
  %30 = call ptr @lookupCommandBySds(ptr noundef %29)
  store ptr %30, ptr %7, align 8, !tbaa !89
  %31 = load ptr, ptr %7, align 8, !tbaa !89
  %32 = icmp eq ptr %31, null
  br i1 %32, label %33, label %34

33:                                               ; preds = %20
  store i32 4, ptr %6, align 4
  br label %94

34:                                               ; preds = %20
  %35 = load ptr, ptr %7, align 8, !tbaa !89
  %36 = getelementptr inbounds nuw %struct.redisCommand, ptr %35, i32 0, i32 28
  %37 = load ptr, ptr %36, align 8, !tbaa !91
  %38 = icmp ne ptr %37, null
  br i1 %38, label %39, label %54

39:                                               ; preds = %34
  %40 = load ptr, ptr %2, align 8, !tbaa !77
  %41 = load ptr, ptr %7, align 8, !tbaa !89
  %42 = getelementptr inbounds nuw %struct.redisCommand, ptr %41, i32 0, i32 27
  %43 = load ptr, ptr %42, align 8, !tbaa !96
  %44 = load ptr, ptr %7, align 8, !tbaa !89
  %45 = getelementptr inbounds nuw %struct.redisCommand, ptr %44, i32 0, i32 27
  %46 = load ptr, ptr %45, align 8, !tbaa !96
  %47 = call i64 @sdslen(ptr noundef %46)
  call void @addReplyBulkCBuffer(ptr noundef %40, ptr noundef %43, i64 noundef %47)
  %48 = load ptr, ptr %2, align 8, !tbaa !77
  %49 = load ptr, ptr %7, align 8, !tbaa !89
  %50 = getelementptr inbounds nuw %struct.redisCommand, ptr %49, i32 0, i32 28
  %51 = load ptr, ptr %50, align 8, !tbaa !91
  call void @fillCommandCDF(ptr noundef %48, ptr noundef %51)
  %52 = load i32, ptr %4, align 4, !tbaa !48
  %53 = add nsw i32 %52, 1
  store i32 %53, ptr %4, align 4, !tbaa !48
  br label %54

54:                                               ; preds = %39, %34
  %55 = load ptr, ptr %7, align 8, !tbaa !89
  %56 = getelementptr inbounds nuw %struct.redisCommand, ptr %55, i32 0, i32 30
  %57 = load ptr, ptr %56, align 8, !tbaa !98
  %58 = icmp ne ptr %57, null
  br i1 %58, label %59, label %93

59:                                               ; preds = %54
  call void @llvm.lifetime.start.p0(i64 8, ptr %8) #10
  call void @llvm.lifetime.start.p0(i64 8, ptr %9) #10
  %60 = load ptr, ptr %7, align 8, !tbaa !89
  %61 = getelementptr inbounds nuw %struct.redisCommand, ptr %60, i32 0, i32 30
  %62 = load ptr, ptr %61, align 8, !tbaa !98
  %63 = call ptr @dictGetSafeIterator(ptr noundef %62)
  store ptr %63, ptr %9, align 8, !tbaa !52
  br label %64

64:                                               ; preds = %90, %59
  %65 = load ptr, ptr %9, align 8, !tbaa !52
  %66 = call ptr @dictNext(ptr noundef %65)
  store ptr %66, ptr %8, align 8, !tbaa !54
  %67 = icmp ne ptr %66, null
  br i1 %67, label %68, label %91

68:                                               ; preds = %64
  call void @llvm.lifetime.start.p0(i64 8, ptr %10) #10
  %69 = load ptr, ptr %8, align 8, !tbaa !54
  %70 = call ptr @dictGetVal(ptr noundef %69)
  store ptr %70, ptr %10, align 8, !tbaa !89
  %71 = load ptr, ptr %10, align 8, !tbaa !89
  %72 = getelementptr inbounds nuw %struct.redisCommand, ptr %71, i32 0, i32 28
  %73 = load ptr, ptr %72, align 8, !tbaa !91
  %74 = icmp ne ptr %73, null
  br i1 %74, label %75, label %90

75:                                               ; preds = %68
  %76 = load ptr, ptr %2, align 8, !tbaa !77
  %77 = load ptr, ptr %10, align 8, !tbaa !89
  %78 = getelementptr inbounds nuw %struct.redisCommand, ptr %77, i32 0, i32 27
  %79 = load ptr, ptr %78, align 8, !tbaa !96
  %80 = load ptr, ptr %10, align 8, !tbaa !89
  %81 = getelementptr inbounds nuw %struct.redisCommand, ptr %80, i32 0, i32 27
  %82 = load ptr, ptr %81, align 8, !tbaa !96
  %83 = call i64 @sdslen(ptr noundef %82)
  call void @addReplyBulkCBuffer(ptr noundef %76, ptr noundef %79, i64 noundef %83)
  %84 = load ptr, ptr %2, align 8, !tbaa !77
  %85 = load ptr, ptr %10, align 8, !tbaa !89
  %86 = getelementptr inbounds nuw %struct.redisCommand, ptr %85, i32 0, i32 28
  %87 = load ptr, ptr %86, align 8, !tbaa !91
  call void @fillCommandCDF(ptr noundef %84, ptr noundef %87)
  %88 = load i32, ptr %4, align 4, !tbaa !48
  %89 = add nsw i32 %88, 1
  store i32 %89, ptr %4, align 4, !tbaa !48
  br label %90

90:                                               ; preds = %75, %68
  call void @llvm.lifetime.end.p0(i64 8, ptr %10) #10
  br label %64, !llvm.loop !116

91:                                               ; preds = %64
  %92 = load ptr, ptr %9, align 8, !tbaa !52
  call void @dictReleaseIterator(ptr noundef %92)
  call void @llvm.lifetime.end.p0(i64 8, ptr %9) #10
  call void @llvm.lifetime.end.p0(i64 8, ptr %8) #10
  br label %93

93:                                               ; preds = %91, %54
  store i32 0, ptr %6, align 4
  br label %94

94:                                               ; preds = %93, %33
  call void @llvm.lifetime.end.p0(i64 8, ptr %7) #10
  %95 = load i32, ptr %6, align 4
  switch i32 %95, label %105 [
    i32 0, label %96
    i32 4, label %97
  ]

96:                                               ; preds = %94
  br label %97

97:                                               ; preds = %96, %94
  %98 = load i32, ptr %5, align 4, !tbaa !48
  %99 = add nsw i32 %98, 1
  store i32 %99, ptr %5, align 4, !tbaa !48
  br label %13, !llvm.loop !117

100:                                              ; preds = %19
  %101 = load ptr, ptr %2, align 8, !tbaa !77
  %102 = load ptr, ptr %3, align 8, !tbaa !10
  %103 = load i32, ptr %4, align 4, !tbaa !48
  %104 = sext i32 %103 to i64
  call void @setDeferredMapLen(ptr noundef %101, ptr noundef %102, i64 noundef %104)
  call void @llvm.lifetime.end.p0(i64 4, ptr %4) #10
  call void @llvm.lifetime.end.p0(i64 8, ptr %3) #10
  ret void

105:                                              ; preds = %94
  unreachable
}