; Function Attrs: nounwind uwtable
define dso_local void @latencySpecificCommandsFillCDF(ptr noundef %0) local_unnamed_addr #2 {
  %2 = alloca %struct.hdr_iter, align 8
  %3 = tail call ptr @addReplyDeferredLen(ptr noundef %0) #14
  %4 = getelementptr inbounds nuw i8, ptr %0, i64 88
  %5 = load i32, ptr %4, align 8, !tbaa !83
  %6 = icmp sgt i32 %5, 2
  br i1 %6, label %.lr.ph42, label %._crit_edge43

.lr.ph42:                                         ; preds = %1
  %7 = getelementptr inbounds nuw i8, ptr %0, i64 96
  %8 = getelementptr inbounds nuw i8, ptr %2, i64 32
  %9 = getelementptr inbounds nuw i8, ptr %2, i64 48
  br label %11

._crit_edge43.loopexit:                           ; preds = %101
  %10 = sext i32 %.1 to i64
  br label %._crit_edge43

._crit_edge43:                                    ; preds = %._crit_edge43.loopexit, %1
  %.0.lcssa = phi i64 [ 0, %1 ], [ %10, %._crit_edge43.loopexit ]
  call void @setDeferredMapLen(ptr noundef nonnull %0, ptr noundef %3, i64 noundef %.0.lcssa) #14
  ret void

11:                                               ; preds = %.lr.ph42, %101
  %indvars.iv = phi i64 [ 2, %.lr.ph42 ], [ %indvars.iv.next, %101 ]
  %.040 = phi i32 [ 0, %.lr.ph42 ], [ %.1, %101 ]
  %12 = load ptr, ptr %7, align 8, !tbaa !93
  %13 = getelementptr inbounds nuw ptr, ptr %12, i64 %indvars.iv
  %14 = load ptr, ptr %13, align 8, !tbaa !94
  %15 = getelementptr inbounds nuw i8, ptr %14, i64 8
  %16 = load ptr, ptr %15, align 8, !tbaa !95
  %17 = call ptr @lookupCommandBySds(ptr noundef %16) #14
  %18 = icmp eq ptr %17, null
  br i1 %18, label %101, label %19

19:                                               ; preds = %11
  %20 = getelementptr inbounds nuw i8, ptr %17, i64 224
  %21 = load ptr, ptr %20, align 8, !tbaa !69
  %.not = icmp eq ptr %21, null
  br i1 %.not, label %49, label %22

22:                                               ; preds = %19
  %23 = getelementptr inbounds nuw i8, ptr %17, i64 216
  %24 = load ptr, ptr %23, align 8, !tbaa !75
  %25 = getelementptr inbounds i8, ptr %24, i64 -1
  %26 = load i8, ptr %25, align 1, !tbaa !76
  %27 = zext i8 %26 to i32
  %28 = and i32 %27, 7
  switch i32 %28, label %sdslen.exit [
    i32 0, label %29
    i32 1, label %32
    i32 2, label %36
    i32 3, label %40
    i32 4, label %44
  ]

29:                                               ; preds = %22
  %30 = lshr i32 %27, 3
  %31 = zext nneg i32 %30 to i64
  br label %sdslen.exit

32:                                               ; preds = %22
  %33 = getelementptr inbounds i8, ptr %24, i64 -3
  %34 = load i8, ptr %33, align 1, !tbaa !76
  %35 = zext i8 %34 to i64
  br label %sdslen.exit

36:                                               ; preds = %22
  %37 = getelementptr inbounds i8, ptr %24, i64 -5
  %38 = load i16, ptr %37, align 1, !tbaa !77
  %39 = zext i16 %38 to i64
  br label %sdslen.exit

40:                                               ; preds = %22
  %41 = getelementptr inbounds i8, ptr %24, i64 -9
  %42 = load i32, ptr %41, align 1, !tbaa !79
  %43 = zext i32 %42 to i64
  br label %sdslen.exit

44:                                               ; preds = %22
  %45 = getelementptr inbounds i8, ptr %24, i64 -17
  %46 = load i64, ptr %45, align 1, !tbaa !56
  br label %sdslen.exit

sdslen.exit:                                      ; preds = %22, %29, %32, %36, %40, %44
  %.0.i = phi i64 [ %46, %44 ], [ %43, %40 ], [ %39, %36 ], [ %35, %32 ], [ %31, %29 ], [ 0, %22 ]
  call void @addReplyBulkCBuffer(ptr noundef nonnull %0, ptr noundef nonnull %24, i64 noundef %.0.i) #14
  %47 = load ptr, ptr %20, align 8, !tbaa !69
  call void @fillCommandCDF(ptr noundef nonnull %0, ptr noundef %47)
  %48 = add nsw i32 %.040, 1
  br label %49

49:                                               ; preds = %sdslen.exit, %19
  %.2 = phi i32 [ %48, %sdslen.exit ], [ %.040, %19 ]
  %50 = getelementptr inbounds nuw i8, ptr %17, i64 288
  %51 = load ptr, ptr %50, align 8, !tbaa !81
  %.not32 = icmp eq ptr %51, null
  br i1 %.not32, label %101, label %52

52:                                               ; preds = %49
  %53 = call ptr @dictGetSafeIterator(ptr noundef nonnull %51) #14
  %54 = call ptr @dictNext(ptr noundef %53) #14
  %.not3337 = icmp eq ptr %54, null
  br i1 %.not3337, label %._crit_edge, label %.lr.ph

.lr.ph:                                           ; preds = %52, %99
  %55 = phi ptr [ %100, %99 ], [ %54, %52 ]
  %.438 = phi i32 [ %.5, %99 ], [ %.2, %52 ]
  %56 = call ptr @dictGetVal(ptr noundef nonnull %55) #14
  %57 = getelementptr inbounds nuw i8, ptr %56, i64 224
  %58 = load ptr, ptr %57, align 8, !tbaa !69
  %.not34 = icmp eq ptr %58, null
  br i1 %.not34, label %99, label %59

59:                                               ; preds = %.lr.ph
  %60 = getelementptr inbounds nuw i8, ptr %56, i64 216
  %61 = load ptr, ptr %60, align 8, !tbaa !75
  %62 = getelementptr inbounds i8, ptr %61, i64 -1
  %63 = load i8, ptr %62, align 1, !tbaa !76
  %64 = zext i8 %63 to i32
  %65 = and i32 %64, 7
  switch i32 %65, label %sdslen.exit36 [
    i32 0, label %66
    i32 1, label %69
    i32 2, label %73
    i32 3, label %77
    i32 4, label %81
  ]

66:                                               ; preds = %59
  %67 = lshr i32 %64, 3
  %68 = zext nneg i32 %67 to i64
  br label %sdslen.exit36

69:                                               ; preds = %59
  %70 = getelementptr inbounds i8, ptr %61, i64 -3
  %71 = load i8, ptr %70, align 1, !tbaa !76
  %72 = zext i8 %71 to i64
  br label %sdslen.exit36

73:                                               ; preds = %59
  %74 = getelementptr inbounds i8, ptr %61, i64 -5
  %75 = load i16, ptr %74, align 1, !tbaa !77
  %76 = zext i16 %75 to i64
  br label %sdslen.exit36

77:                                               ; preds = %59
  %78 = getelementptr inbounds i8, ptr %61, i64 -9
  %79 = load i32, ptr %78, align 1, !tbaa !79
  %80 = zext i32 %79 to i64
  br label %sdslen.exit36

81:                                               ; preds = %59
  %82 = getelementptr inbounds i8, ptr %61, i64 -17
  %83 = load i64, ptr %82, align 1, !tbaa !56
  br label %sdslen.exit36

sdslen.exit36:                                    ; preds = %59, %66, %69, %73, %77, %81
  %.0.i35 = phi i64 [ %83, %81 ], [ %80, %77 ], [ %76, %73 ], [ %72, %69 ], [ %68, %66 ], [ 0, %59 ]
  call void @addReplyBulkCBuffer(ptr noundef %0, ptr noundef nonnull %61, i64 noundef %.0.i35) #14
  %84 = load ptr, ptr %57, align 8, !tbaa !69
  call void @addReplyMapLen(ptr noundef %0, i64 noundef 2) #14
  call void @addReplyBulkCString(ptr noundef %0, ptr noundef nonnull @.str.43) #14
  %85 = getelementptr inbounds nuw i8, ptr %84, i64 88
  %86 = load i64, ptr %85, align 8, !tbaa !61
  call void @addReplyLongLong(ptr noundef %0, i64 noundef %86) #14
  call void @addReplyBulkCString(ptr noundef %0, ptr noundef nonnull @.str.44) #14
  %87 = call ptr @addReplyDeferredLen(ptr noundef %0) #14
  call void @llvm.lifetime.start.p0(i64 128, ptr nonnull %2) #14
  call void @hdr_iter_log_init(ptr noundef nonnull %2, ptr noundef %84, i64 noundef 1024, double noundef 2.000000e+00) #14
  %88 = call zeroext i1 @hdr_iter_next(ptr noundef nonnull %2) #14
  br i1 %88, label %.lr.ph.i, label %fillCommandCDF.exit

.lr.ph.i:                                         ; preds = %sdslen.exit36, %95
  %.020.i = phi i32 [ %.1.i, %95 ], [ 0, %sdslen.exit36 ]
  %.01719.i = phi i64 [ %89, %95 ], [ 0, %sdslen.exit36 ]
  %89 = load i64, ptr %8, align 8, !tbaa !64
  %90 = icmp sgt i64 %89, %.01719.i
  br i1 %90, label %91, label %95

91:                                               ; preds = %.lr.ph.i
  %92 = load i64, ptr %9, align 8, !tbaa !67
  %93 = sdiv i64 %92, 1000
  call void @addReplyLongLong(ptr noundef %0, i64 noundef %93) #14
  call void @addReplyLongLong(ptr noundef %0, i64 noundef %89) #14
  %94 = add nsw i32 %.020.i, 1
  br label %95

95:                                               ; preds = %91, %.lr.ph.i
  %.1.i = phi i32 [ %94, %91 ], [ %.020.i, %.lr.ph.i ]
  %96 = call zeroext i1 @hdr_iter_next(ptr noundef nonnull %2) #14
  br i1 %96, label %.lr.ph.i, label %._crit_edge.loopexit.i, !llvm.loop !68

._crit_edge.loopexit.i:                           ; preds = %95
  %97 = sext i32 %.1.i to i64
  br label %fillCommandCDF.exit

fillCommandCDF.exit:                              ; preds = %sdslen.exit36, %._crit_edge.loopexit.i
  %.0.lcssa.i = phi i64 [ 0, %sdslen.exit36 ], [ %97, %._crit_edge.loopexit.i ]
  call void @setDeferredMapLen(ptr noundef %0, ptr noundef %87, i64 noundef %.0.lcssa.i) #14
  call void @llvm.lifetime.end.p0(i64 128, ptr nonnull %2) #14
  %98 = add nsw i32 %.438, 1
  br label %99

99:                                               ; preds = %fillCommandCDF.exit, %.lr.ph
  %.5 = phi i32 [ %98, %fillCommandCDF.exit ], [ %.438, %.lr.ph ]
  %100 = call ptr @dictNext(ptr noundef %53) #14
  %.not33 = icmp eq ptr %100, null
  br i1 %.not33, label %._crit_edge, label %.lr.ph, !llvm.loop !97

._crit_edge:                                      ; preds = %99, %52
  %.4.lcssa = phi i32 [ %.2, %52 ], [ %.5, %99 ]
  call void @dictReleaseIterator(ptr noundef %53) #14
  br label %101

101:                                              ; preds = %49, %._crit_edge, %11
  %.1 = phi i32 [ %.040, %11 ], [ %.4.lcssa, %._crit_edge ], [ %.2, %49 ]
  %indvars.iv.next = add nuw nsw i64 %indvars.iv, 1
  %102 = load i32, ptr %4, align 8, !tbaa !83
  %103 = sext i32 %102 to i64
  %104 = icmp slt i64 %indvars.iv.next, %103
  br i1 %104, label %11, label %._crit_edge43.loopexit, !llvm.loop !98
}